target datalayout = "e-m:e-p270:32:32-p271:32:32-p272:64:64-i64:64-i128:128-f80:128-n8:16:32:64-S128"
target triple = "x86_64-pc-linux-gnu"

@dh_types = internal global [4 x ptr] [ptr null, ptr @dh_parameter_types, ptr @dh_key_types, ptr @dh_all_types], align 16

; Function Attrs: nounwind uwtable
define internal ptr @dh_imexport_types(i32 noundef %0) #0 {
  %2 = alloca i32, align 4
  %3 = alloca i32, align 4
  store i32 %0, ptr %2, align 4, !tbaa !9
  call void @llvm.lifetime.start.p0(i64 4, ptr %3) #8
  store i32 0, ptr %3, align 4, !tbaa !9
  %4 = load i32, ptr %2, align 4, !tbaa !9
  %5 = and i32 %4, 132
  %6 = icmp ne i32 %5, 0
  br i1 %6, label %7, label %10

7:                                                ; preds = %1
  %8 = load i32, ptr %3, align 4, !tbaa !9
  %9 = add nsw i32 %8, 1
  store i32 %9, ptr %3, align 4, !tbaa !9
  br label %10

10:                                               ; preds = %7, %1
  %11 = load i32, ptr %2, align 4, !tbaa !9
  %12 = and i32 %11, 3
  %13 = icmp ne i32 %12, 0
  br i1 %13, label %14, label %17

14:                                               ; preds = %10
  %15 = load i32, ptr %3, align 4, !tbaa !9
  %16 = add nsw i32 %15, 2
  store i32 %16, ptr %3, align 4, !tbaa !9
  br label %17

17:                                               ; preds = %14, %10
  %18 = load i32, ptr %3, align 4, !tbaa !9
  %19 = sext i32 %18 to i64
  %20 = getelementptr inbounds [4 x ptr], ptr @dh_types, i64 0, i64 %19
  %21 = load ptr, ptr %20, align 8, !tbaa !11
  call void @llvm.lifetime.end.p0(i64 4, ptr %3) #8
  ret ptr %21
}

; Function Attrs: nounwind uwtable
define internal ptr @dh_import_types(i32 noundef %0) #0 {
  %2 = alloca i32, align 4
  store i32 %0, ptr %2, align 4, !tbaa !9
  %3 = load i32, ptr %2, align 4, !tbaa !9
  %4 = call ptr @dh_imexport_types(i32 noundef %3)
  ret ptr %4
}